; Function Attrs: mustprogress uwtable
define noundef zeroext i1 @_ZN6google8protobuf8internal14WireFormatLite11SkipMessageEPNS0_2io16CodedInputStreamEPNS3_17CodedOutputStreamE(ptr noundef %0, ptr noundef %1) local_unnamed_addr #3 align 2 {
  %3 = getelementptr inbounds i8, ptr %0, i64 8
  %4 = getelementptr inbounds i8, ptr %0, i64 32
  br label %5

5:                                                ; preds = %51, %2
  %6 = load ptr, ptr %0, align 8
  %7 = load ptr, ptr %3, align 8
  %8 = icmp ult ptr %6, %7
  br i1 %8, label %9, label %15

9:                                                ; preds = %5
  %10 = load i8, ptr %6, align 1
  %11 = zext i8 %10 to i32
  %12 = icmp sgt i8 %10, -1
  br i1 %12, label %13, label %15

13:                                               ; preds = %9
  %14 = getelementptr inbounds i8, ptr %6, i64 1
  store ptr %14, ptr %0, align 8
  br label %17

15:                                               ; preds = %9, %5
  %.016 = phi i32 [ %11, %9 ], [ 0, %5 ]
  %16 = tail call noundef i32 @_ZN6google8protobuf2io16CodedInputStream15ReadTagFallbackEj(ptr noundef nonnull align 8 dereferenceable(80) %0, i32 noundef %.016)
  br label %17

17:                                               ; preds = %15, %13
  %.0 = phi i32 [ %11, %13 ], [ %16, %15 ]
  store i32 %.0, ptr %4, align 8
  %18 = icmp eq i32 %.0, 0
  br i1 %18, label %.loopexit, label %19

19:                                               ; preds = %17
  %20 = and i32 %.0, 7
  %21 = icmp eq i32 %20, 4
  br i1 %21, label %22, label %51

22:                                               ; preds = %19
  %23 = getelementptr inbounds i8, ptr %1, i64 64
  %24 = load ptr, ptr %23, align 8
  %25 = load ptr, ptr %1, align 8
  %.not.i.i = icmp ugt ptr %25, %24
  br i1 %.not.i.i, label %_ZN6google8protobuf2io19EpsCopyOutputStream11EnsureSpaceEPh.exit.i, label %26

26:                                               ; preds = %22
  %27 = tail call noundef ptr @_ZN6google8protobuf2io19EpsCopyOutputStream19EnsureSpaceFallbackEPh(ptr noundef nonnull align 8 dereferenceable(59) %1, ptr noundef %24)
  br label %_ZN6google8protobuf2io19EpsCopyOutputStream11EnsureSpaceEPh.exit.i

_ZN6google8protobuf2io19EpsCopyOutputStream11EnsureSpaceEPh.exit.i: ; preds = %26, %22
  %.0.i.i = phi ptr [ %27, %26 ], [ %24, %22 ]
  %28 = icmp ult i32 %.0, 128
  %29 = trunc i32 %.0 to i8
  br i1 %28, label %30, label %32

30:                                               ; preds = %_ZN6google8protobuf2io19EpsCopyOutputStream11EnsureSpaceEPh.exit.i
  store i8 %29, ptr %.0.i.i, align 1
  %31 = getelementptr inbounds i8, ptr %.0.i.i, i64 1
  br label %_ZN6google8protobuf2io17CodedOutputStream13WriteVarint32Ej.exit

32:                                               ; preds = %_ZN6google8protobuf2io19EpsCopyOutputStream11EnsureSpaceEPh.exit.i
  %33 = or i8 %29, -128
  store i8 %33, ptr %.0.i.i, align 1
  %34 = lshr i32 %.0, 7
  %35 = icmp ult i32 %.0, 16384
  br i1 %35, label %36, label %40

36:                                               ; preds = %32
  %37 = trunc nuw nsw i32 %34 to i8
  %38 = getelementptr inbounds i8, ptr %.0.i.i, i64 1
  store i8 %37, ptr %38, align 1
  %39 = getelementptr inbounds i8, ptr %.0.i.i, i64 2
  br label %_ZN6google8protobuf2io17CodedOutputStream13WriteVarint32Ej.exit

40:                                               ; preds = %32
  %41 = getelementptr inbounds i8, ptr %.0.i.i, i64 1
  br label %42

42:                                               ; preds = %42, %40
  %.023.i.i = phi ptr [ %41, %40 ], [ %46, %42 ]
  %.022.i.i = phi i32 [ %34, %40 ], [ %45, %42 ]
  %43 = trunc i32 %.022.i.i to i8
  %44 = or i8 %43, -128
  store i8 %44, ptr %.023.i.i, align 1
  %45 = lshr i32 %.022.i.i, 7
  %46 = getelementptr inbounds i8, ptr %.023.i.i, i64 1
  %47 = icmp ugt i32 %.022.i.i, 16383
  br i1 %47, label %42, label %48, !llvm.loop !6

48:                                               ; preds = %42
  %49 = trunc nuw nsw i32 %45 to i8
  %50 = getelementptr inbounds i8, ptr %.023.i.i, i64 2
  store i8 %49, ptr %46, align 1
  br label %_ZN6google8protobuf2io17CodedOutputStream13WriteVarint32Ej.exit

_ZN6google8protobuf2io17CodedOutputStream13WriteVarint32Ej.exit: ; preds = %30, %36, %48
  %.0.i1.i = phi ptr [ %31, %30 ], [ %39, %36 ], [ %50, %48 ]
  store ptr %.0.i1.i, ptr %23, align 8
  br label %.loopexit

51:                                               ; preds = %19
  %52 = tail call noundef zeroext i1 @_ZN6google8protobuf8internal14WireFormatLite9SkipFieldEPNS0_2io16CodedInputStreamEjPNS3_17CodedOutputStreamE(ptr noundef nonnull %0, i32 noundef %.0, ptr noundef %1)
  br i1 %52, label %5, label %.loopexit, !llvm.loop !8

.loopexit:                                        ; preds = %51, %17, %_ZN6google8protobuf2io17CodedOutputStream13WriteVarint32Ej.exit
  %.017 = phi i1 [ true, %_ZN6google8protobuf2io17CodedOutputStream13WriteVarint32Ej.exit ], [ %18, %17 ], [ %18, %51 ]
  ret i1 %.017
}